target datalayout = "e-m:e-p270:32:32-p271:32:32-p272:64:64-i64:64-i128:128-f80:128-n8:16:32:64-S128"
target triple = "x86_64-unknown-linux-gnu"

%"class.net::HpackOutputStream" = type { %"class.std::__cxx11::basic_string", i64 }
%"class.std::__cxx11::basic_string" = type { %"struct.std::__cxx11::basic_string<char>::_Alloc_hider", i64, %union.anon }
%"struct.std::__cxx11::basic_string<char>::_Alloc_hider" = type { ptr }
%union.anon = type { i64, [8 x i8] }

; Function Attrs: mustprogress uwtable
define dso_local void @_ZN3net17HpackOutputStream12AppendUint32Ej(ptr noundef nonnull align 8 dereferenceable(40) %this, i32 noundef %I) #2 align 2 {
entry:
  %this.addr = alloca ptr, align 8
  %I.addr = alloca i32, align 4
  %N = alloca i64, align 8
  %max_first_byte = alloca i8, align 1
  store ptr %this, ptr %this.addr, align 8
  store i32 %I, ptr %I.addr, align 4
  %this1 = load ptr, ptr %this.addr, align 8
  %bit_offset_ = getelementptr inbounds %"class.net::HpackOutputStream", ptr %this1, i32 0, i32 1
  %0 = load i64, ptr %bit_offset_, align 8
  %sub = sub i64 8, %0
  store i64 %sub, ptr %N, align 8
  %1 = load i64, ptr %N, align 8
  %sh_prom = trunc i64 %1 to i32
  %shl = shl i32 1, %sh_prom
  %sub2 = sub nsw i32 %shl, 1
  %conv = trunc i32 %sub2 to i8
  store i8 %conv, ptr %max_first_byte, align 1
  %2 = load i32, ptr %I.addr, align 4
  %3 = load i8, ptr %max_first_byte, align 1
  %conv3 = zext i8 %3 to i32
  %cmp = icmp ult i32 %2, %conv3
  br i1 %cmp, label %if.then, label %if.else

if.then:                                          ; preds = %entry
  %4 = load i32, ptr %I.addr, align 4
  %conv4 = trunc i32 %4 to i8
  %5 = load i64, ptr %N, align 8
  call void @_ZN3net17HpackOutputStream10AppendBitsEhm(ptr noundef nonnull align 8 dereferenceable(40) %this1, i8 noundef zeroext %conv4, i64 noundef %5)
  br label %if.end

if.else:                                          ; preds = %entry
  %6 = load i8, ptr %max_first_byte, align 1
  %7 = load i64, ptr %N, align 8
  call void @_ZN3net17HpackOutputStream10AppendBitsEhm(ptr noundef nonnull align 8 dereferenceable(40) %this1, i8 noundef zeroext %6, i64 noundef %7)
  %8 = load i8, ptr %max_first_byte, align 1
  %conv5 = zext i8 %8 to i32
  %9 = load i32, ptr %I.addr, align 4
  %sub6 = sub i32 %9, %conv5
  store i32 %sub6, ptr %I.addr, align 4
  br label %while.cond

while.cond:                                       ; preds = %while.body, %if.else
  %10 = load i32, ptr %I.addr, align 4
  %and = and i32 %10, -128
  %cmp7 = icmp ne i32 %and, 0
  br i1 %cmp7, label %while.body, label %while.end

while.body:                                       ; preds = %while.cond
  %buffer_ = getelementptr inbounds %"class.net::HpackOutputStream", ptr %this1, i32 0, i32 0
  %11 = load i32, ptr %I.addr, align 4
  %and8 = and i32 %11, 127
  %or = or i32 %and8, 128
  %conv9 = trunc i32 %or to i8
  %call = call noundef nonnull align 8 dereferenceable(32) ptr @_ZNSt7__cxx1112basic_stringIcSt11char_traitsIcESaIcEE6appendEmc(ptr noundef nonnull align 8 dereferenceable(32) %buffer_, i64 noundef 1, i8 noundef signext %conv9)
  %12 = load i32, ptr %I.addr, align 4
  %shr = lshr i32 %12, 7
  store i32 %shr, ptr %I.addr, align 4
  br label %while.cond, !llvm.loop !5

while.end:                                        ; preds = %while.cond
  %13 = load i32, ptr %I.addr, align 4
  %conv10 = trunc i32 %13 to i8
  call void @_ZN3net17HpackOutputStream10AppendBitsEhm(ptr noundef nonnull align 8 dereferenceable(40) %this1, i8 noundef zeroext %conv10, i64 noundef 8)
  br label %if.end

if.end:                                           ; preds = %while.end, %if.then
  ret void
}