; Function Attrs: mustprogress uwtable
define dso_local void @_ZN3net17HpackOutputStream12AppendUint32Ej(ptr noundef nonnull align 8 dereferenceable(40) %this, i32 noundef %I) local_unnamed_addr #2 align 2 {
entry:
  %bit_offset_ = getelementptr inbounds nuw i8, ptr %this, i64 32
  %0 = load i64, ptr %bit_offset_, align 8
  %sub = sub i64 8, %0
  %sh_prom = trunc i64 %sub to i32
  %notmask = shl nsw i32 -1, %sh_prom
  %1 = trunc i32 %notmask to i8
  %conv = xor i8 %1, -1
  %conv3 = zext i8 %conv to i32
  %cmp = icmp ult i32 %I, %conv3
  br i1 %cmp, label %if.end, label %if.else

if.else:                                          ; preds = %entry
  tail call void @_ZN3net17HpackOutputStream10AppendBitsEhm(ptr noundef nonnull align 8 dereferenceable(40) %this, i8 noundef zeroext %conv, i64 noundef %sub)
  %sub6 = sub nuw i32 %I, %conv3
  %cmp7.not11 = icmp ult i32 %sub6, 128
  br i1 %cmp7.not11, label %if.end, label %while.body

while.body:                                       ; preds = %if.else, %while.body
  %I.addr.012 = phi i32 [ %shr, %while.body ], [ %sub6, %if.else ]
  %2 = trunc i32 %I.addr.012 to i8
  %conv9 = or i8 %2, -128
  %call = tail call noundef nonnull align 8 dereferenceable(32) ptr @_ZNSt7__cxx1112basic_stringIcSt11char_traitsIcESaIcEE6appendEmc(ptr noundef nonnull align 8 dereferenceable(32) %this, i64 noundef 1, i8 noundef signext %conv9)
  %shr = lshr i32 %I.addr.012, 7
  %cmp7.not = icmp ult i32 %I.addr.012, 16384
  br i1 %cmp7.not, label %if.end, label %while.body, !llvm.loop !5

if.end:                                           ; preds = %while.body, %if.else, %entry
  %I.addr.0.lcssa.sink = phi i32 [ %I, %entry ], [ %sub6, %if.else ], [ %shr, %while.body ]
  %.sink = phi i64 [ %sub, %entry ], [ 8, %if.else ], [ 8, %while.body ]
  %conv10 = trunc nuw i32 %I.addr.0.lcssa.sink to i8
  tail call void @_ZN3net17HpackOutputStream10AppendBitsEhm(ptr noundef nonnull align 8 dereferenceable(40) %this, i8 noundef zeroext %conv10, i64 noundef %.sink)
  ret void
}